; Function Attrs: mustprogress uwtable
define hidden noundef nonnull align 8 dereferenceable(248) ptr @_ZNK19OpenColorIO_v2_5dev24GradingToneTransformImpl8getValueEv(ptr noundef nonnull readonly align 8 captures(none) dereferenceable(208) %0) unnamed_addr #0 align 2 {
  %2 = getelementptr inbounds nuw i8, ptr %0, i64 184
  %3 = load ptr, ptr %2, align 8, !tbaa !58
  %4 = load ptr, ptr %3, align 8, !tbaa !3
  %5 = getelementptr inbounds nuw i8, ptr %4, i64 24
  %6 = load ptr, ptr %5, align 8
  %7 = tail call noundef nonnull align 8 dereferenceable(248) ptr %6(ptr noundef nonnull align 8 dereferenceable(1208) %3)
  ret ptr %7
}